target datalayout = "e-m:e-p270:32:32-p271:32:32-p272:64:64-i64:64-i128:128-f80:128-n8:16:32:64-S128"
target triple = "x86_64-pc-linux-gnu"

%struct._zend_executor_globals = type { %struct._zval_struct, %struct._zval_struct, [32 x ptr], ptr, ptr, %struct._zend_array, %struct._zend_array, ptr, i32, i32, ptr, ptr, ptr, ptr, ptr, ptr, i64, ptr, ptr, i32, i32, i64, i32, i32, i32, i8, i8, %struct.zend_atomic_bool_s, %struct.zend_atomic_bool_s, ptr, i64, ptr, ptr, %struct._zend_array, %struct._zend_array, i32, i8, %struct._zval_struct, %struct._zval_struct, %struct._zend_stack, %struct._zend_stack, %struct._zend_stack, ptr, i32, i32, i64, ptr, ptr, ptr, %struct._zend_objects_store, ptr, ptr, ptr, [3 x %struct._zend_op], ptr, i8, i8, i64, i32, i32, ptr, [16 x %struct._HashTableIterator], ptr, %union._zend_function, %struct._zend_op, %struct._zend_array, i64, %struct.zend_get_gc_buffer, ptr, ptr, ptr, i64, i8, i32, ptr, ptr, i64, %struct._zend_call_stack, i64, i64, [6 x ptr] }
%struct.zend_atomic_bool_s = type { i8 }
%struct._zval_struct = type { %union._zend_value, %union.anon, %union.anon.2 }
%union._zend_value = type { i64 }
%union.anon = type { i32 }
%union.anon.2 = type { i32 }
%struct._zend_stack = type { i32, i32, i32, ptr }
%struct._zend_objects_store = type { ptr, i32, i32, i32 }
%struct._HashTableIterator = type { ptr, i32, i32 }
%union._zend_function = type { %struct._zend_op_array }
%struct._zend_op_array = type { i8, [3 x i8], i32, ptr, ptr, ptr, i32, i32, ptr, ptr, ptr, ptr, i32, i32, i32, i32, ptr, ptr, ptr, ptr, ptr, i32, i32, ptr, ptr, ptr, i32, i32, i32, i32, ptr, ptr, [6 x ptr] }
%struct._zend_op = type { ptr, %union._znode_op, %union._znode_op, %union._znode_op, i32, i32, i8, i8, i8, i8 }
%union._znode_op = type { i32 }
%struct._zend_array = type { %struct._zend_refcounted_h, %union.anon.4, i32, %union.anon.6, i32, i32, i32, i32, i64, ptr }
%struct._zend_refcounted_h = type { i32, %union.anon.3 }
%union.anon.3 = type { i32 }
%union.anon.4 = type { i32 }
%union.anon.6 = type { ptr }
%struct.zend_get_gc_buffer = type { ptr, ptr, ptr }
%struct._zend_call_stack = type { ptr, i64 }
%struct._zend_string = type { %struct._zend_refcounted_h, i64, i64, [1 x i8] }
%struct._xmlNode = type { ptr, i32, ptr, ptr, ptr, ptr, ptr, ptr, ptr, ptr, ptr, ptr, ptr, ptr, i16, i16 }
%struct._zend_execute_data = type { ptr, ptr, ptr, ptr, %struct._zval_struct, ptr, ptr, ptr, ptr }
%struct._dom_object = type { ptr, ptr, ptr, %struct._zend_object }
%struct._zend_object = type { %struct._zend_refcounted_h, i32, ptr, ptr, ptr, [1 x %struct._zval_struct] }
%struct._zend_class_entry = type { i8, ptr, %union.anon.8, i32, i32, i32, i32, ptr, ptr, ptr, %struct._zend_array, %struct._zend_array, %struct._zend_array, ptr, ptr, ptr, ptr, ptr, ptr, ptr, ptr, ptr, ptr, ptr, ptr, ptr, ptr, ptr, ptr, ptr, ptr, ptr, %union.anon.9, ptr, ptr, ptr, ptr, i32, i32, %union.anon.10, ptr, ptr, ptr, ptr, i32, ptr, ptr, %union.anon.11 }
%union.anon.8 = type { ptr }
%union.anon.9 = type { ptr }
%union.anon.10 = type { ptr }
%union.anon.11 = type { %struct.anon.12 }
%struct.anon.12 = type { ptr, i32, i32 }
%struct._php_libxml_node_ptr = type { ptr, i32, ptr }

@.str = private unnamed_addr constant [3 x i8] c"ll\00", align 1
@executor_globals = external global %struct._zend_executor_globals, align 8
@.str.1 = private unnamed_addr constant [18 x i8] c"Couldn't fetch %s\00", align 1
@xmlFree = external global ptr, align 8

; Function Attrs: nounwind uwtable
define internal ptr @php_dom_obj_from_obj(ptr noundef %0) #0 {
  %2 = alloca ptr, align 8
  store ptr %0, ptr %2, align 8
  %3 = load ptr, ptr %2, align 8
  %4 = getelementptr inbounds i8, ptr %3, i64 -24
  ret ptr %4
}

; Function Attrs: nounwind uwtable
define hidden void @zim_DOMCharacterData_deleteData(ptr noundef %0, ptr noundef %1) #0 {
  %3 = alloca ptr, align 8
  %4 = alloca ptr, align 8
  %5 = alloca ptr, align 8
  %6 = alloca ptr, align 8
  %7 = alloca ptr, align 8
  %8 = alloca ptr, align 8
  %9 = alloca ptr, align 8
  %10 = alloca i64, align 8
  %11 = alloca i64, align 8
  %12 = alloca i32, align 4
  %13 = alloca ptr, align 8
  store ptr %0, ptr %3, align 8
  store ptr %1, ptr %4, align 8
  %14 = load ptr, ptr %3, align 8
  %15 = getelementptr inbounds %struct._zend_execute_data, ptr %14, i32 0, i32 4
  store ptr %15, ptr %5, align 8
  %16 = load ptr, ptr %3, align 8
  %17 = getelementptr inbounds %struct._zend_execute_data, ptr %16, i32 0, i32 4
  %18 = getelementptr inbounds %struct._zval_struct, ptr %17, i32 0, i32 2
  %19 = load i32, ptr %18, align 4
  %20 = call i32 (i32, ptr, ...) @zend_parse_parameters(i32 noundef %19, ptr noundef @.str, ptr noundef %10, ptr noundef %11)
  %21 = icmp eq i32 %20, -1
  br i1 %21, label %22, label %27

22:                                               ; preds = %2
  br label %23

23:                                               ; preds = %22
  %24 = load ptr, ptr getelementptr inbounds (%struct._zend_executor_globals, ptr @executor_globals, i32 0, i32 50), align 8
  %25 = icmp ne ptr %24, null
  call void @llvm.assume(i1 %25)
  br label %159

26:                                               ; No predecessors!
  br label %27

27:                                               ; preds = %26, %2
  %28 = load ptr, ptr %5, align 8
  %29 = getelementptr inbounds %struct._zval_struct, ptr %28, i32 0, i32 0
  %30 = load ptr, ptr %29, align 8
  %31 = call ptr @php_dom_obj_from_obj(ptr noundef %30)
  store ptr %31, ptr %13, align 8
  %32 = load ptr, ptr %13, align 8
  %33 = getelementptr inbounds %struct._dom_object, ptr %32, i32 0, i32 0
  %34 = load ptr, ptr %33, align 8
  %35 = icmp eq ptr %34, null
  %36 = xor i1 %35, true
  %37 = xor i1 %36, true
  %38 = zext i1 %37 to i32
  %39 = sext i32 %38 to i64
  %40 = icmp ne i64 %39, 0
  br i1 %40, label %41, label %54

41:                                               ; preds = %27
  %42 = load ptr, ptr %13, align 8
  %43 = getelementptr inbounds %struct._dom_object, ptr %42, i32 0, i32 3
  %44 = getelementptr inbounds %struct._zend_object, ptr %43, i32 0, i32 2
  %45 = load ptr, ptr %44, align 8
  %46 = getelementptr inbounds %struct._zend_class_entry, ptr %45, i32 0, i32 1
  %47 = load ptr, ptr %46, align 8
  %48 = getelementptr inbounds %struct._zend_string, ptr %47, i32 0, i32 3
  %49 = getelementptr inbounds [1 x i8], ptr %48, i64 0, i64 0
  call void (ptr, ptr, ...) @zend_throw_error(ptr noundef null, ptr noundef @.str.1, ptr noundef %49)
  br label %50

50:                                               ; preds = %41
  %51 = load ptr, ptr getelementptr inbounds (%struct._zend_executor_globals, ptr @executor_globals, i32 0, i32 50), align 8
  %52 = icmp ne ptr %51, null
  call void @llvm.assume(i1 %52)
  br label %159

53:                                               ; No predecessors!
  br label %54

54:                                               ; preds = %53, %27
  %55 = load ptr, ptr %13, align 8
  %56 = getelementptr inbounds %struct._dom_object, ptr %55, i32 0, i32 0
  %57 = load ptr, ptr %56, align 8
  %58 = getelementptr inbounds %struct._php_libxml_node_ptr, ptr %57, i32 0, i32 0
  %59 = load ptr, ptr %58, align 8
  store ptr %59, ptr %9, align 8
  %60 = load ptr, ptr %9, align 8
  %61 = getelementptr inbounds %struct._xmlNode, ptr %60, i32 0, i32 10
  %62 = load ptr, ptr %61, align 8
  store ptr %62, ptr %6, align 8
  %63 = load ptr, ptr %6, align 8
  %64 = icmp eq ptr %63, null
  br i1 %64, label %65, label %72

65:                                               ; preds = %54
  br label %66

66:                                               ; preds = %65
  br label %67

67:                                               ; preds = %66
  %68 = load ptr, ptr %4, align 8
  %69 = getelementptr inbounds %struct._zval_struct, ptr %68, i32 0, i32 1
  store i32 2, ptr %69, align 8
  br label %70

70:                                               ; preds = %67
  br label %159

71:                                               ; No predecessors!
  br label %72

72:                                               ; preds = %71, %54
  %73 = load ptr, ptr %6, align 8
  %74 = call i32 @xmlUTF8Strlen(ptr noundef %73)
  store i32 %74, ptr %12, align 4
  %75 = load i64, ptr %10, align 8
  %76 = icmp slt i64 %75, 0
  br i1 %76, label %101, label %77

77:                                               ; preds = %72
  %78 = load i64, ptr %11, align 8
  %79 = icmp slt i64 %78, 0
  br i1 %79, label %101, label %80

80:                                               ; preds = %77
  %81 = load i64, ptr %10, align 8
  %82 = icmp sgt i64 %81, 2147483647
  %83 = xor i1 %82, true
  %84 = xor i1 %83, true
  %85 = zext i1 %84 to i32
  %86 = sext i32 %85 to i64
  %87 = icmp ne i64 %86, 0
  br i1 %87, label %101, label %88

88:                                               ; preds = %80
  %89 = load i64, ptr %11, align 8
  %90 = icmp sgt i64 %89, 2147483647
  %91 = xor i1 %90, true
  %92 = xor i1 %91, true
  %93 = zext i1 %92 to i32
  %94 = sext i32 %93 to i64
  %95 = icmp ne i64 %94, 0
  br i1 %95, label %101, label %96

96:                                               ; preds = %88
  %97 = load i64, ptr %10, align 8
  %98 = load i32, ptr %12, align 4
  %99 = sext i32 %98 to i64
  %100 = icmp sgt i64 %97, %99
  br i1 %100, label %101, label %112

101:                                              ; preds = %96, %88, %80, %77, %72
  %102 = load ptr, ptr %13, align 8
  %103 = getelementptr inbounds %struct._dom_object, ptr %102, i32 0, i32 1
  %104 = load ptr, ptr %103, align 8
  %105 = call i32 @dom_get_strict_error(ptr noundef %104)
  call void @php_dom_throw_error(i32 noundef 1, i32 noundef %105)
  br label %106

106:                                              ; preds = %101
  br label %107

107:                                              ; preds = %106
  %108 = load ptr, ptr %4, align 8
  %109 = getelementptr inbounds %struct._zval_struct, ptr %108, i32 0, i32 1
  store i32 2, ptr %109, align 8
  br label %110

110:                                              ; preds = %107
  br label %159

111:                                              ; No predecessors!
  br label %112

112:                                              ; preds = %111, %96
  %113 = load i64, ptr %10, align 8
  %114 = icmp sgt i64 %113, 0
  br i1 %114, label %115, label %120

115:                                              ; preds = %112
  %116 = load ptr, ptr %6, align 8
  %117 = load i64, ptr %10, align 8
  %118 = trunc i64 %117 to i32
  %119 = call ptr @xmlUTF8Strsub(ptr noundef %116, i32 noundef 0, i32 noundef %118)
  store ptr %119, ptr %7, align 8
  br label %121

120:                                              ; preds = %112
  store ptr null, ptr %7, align 8
  br label %121

121:                                              ; preds = %120, %115
  %122 = load i64, ptr %10, align 8
  %123 = load i64, ptr %11, align 8
  %124 = add nsw i64 %122, %123
  %125 = load i32, ptr %12, align 4
  %126 = sext i32 %125 to i64
  %127 = icmp sgt i64 %124, %126
  br i1 %127, label %128, label %133

128:                                              ; preds = %121
  %129 = load i32, ptr %12, align 4
  %130 = sext i32 %129 to i64
  %131 = load i64, ptr %10, align 8
  %132 = sub nsw i64 %130, %131
  store i64 %132, ptr %11, align 8
  br label %133

133:                                              ; preds = %128, %121
  %134 = load ptr, ptr %6, align 8
  %135 = load i64, ptr %10, align 8
  %136 = trunc i64 %135 to i32
  %137 = load i64, ptr %11, align 8
  %138 = trunc i64 %137 to i32
  %139 = add nsw i32 %136, %138
  %140 = load i32, ptr %12, align 4
  %141 = load i64, ptr %10, align 8
  %142 = trunc i64 %141 to i32
  %143 = sub nsw i32 %140, %142
  %144 = call ptr @xmlUTF8Strsub(ptr noundef %134, i32 noundef %139, i32 noundef %143)
  store ptr %144, ptr %8, align 8
  %145 = load ptr, ptr %7, align 8
  %146 = load ptr, ptr %8, align 8
  %147 = call ptr @xmlStrcat(ptr noundef %145, ptr noundef %146)
  store ptr %147, ptr %7, align 8
  %148 = load ptr, ptr %9, align 8
  %149 = load ptr, ptr %7, align 8
  call void @xmlNodeSetContent(ptr noundef %148, ptr noundef %149)
  %150 = load ptr, ptr @xmlFree, align 8
  %151 = load ptr, ptr %8, align 8
  call void %150(ptr noundef %151)
  %152 = load ptr, ptr @xmlFree, align 8
  %153 = load ptr, ptr %7, align 8
  call void %152(ptr noundef %153)
  br label %154

154:                                              ; preds = %133
  br label %155

155:                                              ; preds = %154
  %156 = load ptr, ptr %4, align 8
  %157 = getelementptr inbounds %struct._zval_struct, ptr %156, i32 0, i32 1
  store i32 3, ptr %157, align 8
  br label %158

158:                                              ; preds = %155
  br label %159

159:                                              ; preds = %158, %110, %70, %50, %23
  ret void
}