; Function Attrs: nounwind uwtable
define hidden void @zim_DOMCharacterData_deleteData(ptr nocapture noundef readonly %0, ptr nocapture noundef writeonly %1) local_unnamed_addr #0 {
  %3 = alloca i64, align 8
  %4 = alloca i64, align 8
  %5 = getelementptr inbounds i8, ptr %0, i64 44
  %6 = load i32, ptr %5, align 4
  %7 = call i32 (i32, ptr, ...) @zend_parse_parameters(i32 noundef %6, ptr noundef nonnull @.str, ptr noundef nonnull %3, ptr noundef nonnull %4) #6
  %8 = icmp eq i32 %7, -1
  br i1 %8, label %9, label %12

9:                                                ; preds = %2
  %10 = load ptr, ptr getelementptr inbounds (%struct._zend_executor_globals, ptr @executor_globals, i64 0, i32 50), align 8
  %11 = icmp ne ptr %10, null
  call void @llvm.assume(i1 %11)
  br label %70

12:                                               ; preds = %2
  %13 = getelementptr inbounds i8, ptr %0, i64 32
  %14 = load ptr, ptr %13, align 8
  %15 = getelementptr inbounds i8, ptr %14, i64 -24
  %16 = load ptr, ptr %15, align 8
  %17 = icmp eq ptr %16, null
  br i1 %17, label %18, label %26

18:                                               ; preds = %12
  %19 = getelementptr inbounds i8, ptr %14, i64 16
  %20 = load ptr, ptr %19, align 8
  %21 = getelementptr inbounds i8, ptr %20, i64 8
  %22 = load ptr, ptr %21, align 8
  %23 = getelementptr inbounds i8, ptr %22, i64 24
  call void (ptr, ptr, ...) @zend_throw_error(ptr noundef null, ptr noundef nonnull @.str.1, ptr noundef nonnull %23) #6
  %24 = load ptr, ptr getelementptr inbounds (%struct._zend_executor_globals, ptr @executor_globals, i64 0, i32 50), align 8
  %25 = icmp ne ptr %24, null
  call void @llvm.assume(i1 %25)
  br label %70

26:                                               ; preds = %12
  %27 = load ptr, ptr %16, align 8
  %28 = getelementptr inbounds i8, ptr %27, i64 80
  %29 = load ptr, ptr %28, align 8
  %30 = icmp eq ptr %29, null
  br i1 %30, label %31, label %33

31:                                               ; preds = %26
  %32 = getelementptr inbounds i8, ptr %1, i64 8
  store i32 2, ptr %32, align 8
  br label %70

33:                                               ; preds = %26
  %34 = call i32 @xmlUTF8Strlen(ptr noundef nonnull %29) #6
  %35 = load i64, ptr %3, align 8
  %36 = load i64, ptr %4, align 8
  %37 = icmp slt i64 %36, 0
  %38 = icmp ugt i64 %35, 2147483647
  %or.cond30 = select i1 %38, i1 true, i1 %37
  %39 = icmp sgt i64 %36, 2147483647
  %or.cond31 = select i1 %or.cond30, i1 true, i1 %39
  br i1 %or.cond31, label %43, label %40

40:                                               ; preds = %33
  %41 = sext i32 %34 to i64
  %42 = icmp sgt i64 %35, %41
  br i1 %42, label %43, label %48

43:                                               ; preds = %40, %33
  %44 = getelementptr inbounds i8, ptr %14, i64 -16
  %45 = load ptr, ptr %44, align 8
  %46 = call i32 @dom_get_strict_error(ptr noundef %45) #6
  call void @php_dom_throw_error(i32 noundef 1, i32 noundef %46) #6
  %47 = getelementptr inbounds i8, ptr %1, i64 8
  store i32 2, ptr %47, align 8
  br label %70

48:                                               ; preds = %40
  %.not = icmp eq i64 %35, 0
  br i1 %.not, label %52, label %49

49:                                               ; preds = %48
  %50 = trunc i64 %35 to i32
  %51 = call ptr @xmlUTF8Strsub(ptr noundef nonnull %29, i32 noundef 0, i32 noundef %50) #6
  %.pre = load i64, ptr %3, align 8
  %.pre32 = load i64, ptr %4, align 8
  br label %52

52:                                               ; preds = %48, %49
  %53 = phi i64 [ %.pre32, %49 ], [ %36, %48 ]
  %54 = phi i64 [ %.pre, %49 ], [ 0, %48 ]
  %.0 = phi ptr [ %51, %49 ], [ null, %48 ]
  %55 = add nsw i64 %53, %54
  %56 = icmp sgt i64 %55, %41
  br i1 %56, label %57, label %59

57:                                               ; preds = %52
  %58 = sub nsw i64 %41, %54
  store i64 %58, ptr %4, align 8
  br label %59

59:                                               ; preds = %57, %52
  %60 = phi i64 [ %58, %57 ], [ %53, %52 ]
  %61 = trunc i64 %54 to i32
  %62 = trunc i64 %60 to i32
  %63 = add nsw i32 %62, %61
  %64 = sub nsw i32 %34, %61
  %65 = call ptr @xmlUTF8Strsub(ptr noundef nonnull %29, i32 noundef %63, i32 noundef %64) #6
  %66 = call ptr @xmlStrcat(ptr noundef %.0, ptr noundef %65) #6
  call void @xmlNodeSetContent(ptr noundef nonnull %27, ptr noundef %66) #6
  %67 = load ptr, ptr @xmlFree, align 8
  call void %67(ptr noundef %65) #6
  %68 = load ptr, ptr @xmlFree, align 8
  call void %68(ptr noundef %66) #6
  %69 = getelementptr inbounds i8, ptr %1, i64 8
  store i32 3, ptr %69, align 8
  br label %70

70:                                               ; preds = %59, %43, %31, %18, %9
  ret void
}